; Function Attrs: mustprogress nofree norecurse nosync nounwind willreturn memory(argmem: read) uwtable
define dso_local noundef zeroext i1 @_ZN7doctestltEdRKNS_6ApproxE(double noundef %0, ptr noundef nonnull readonly align 8 captures(none) dereferenceable(24) %1) local_unnamed_addr #17 {
  %3 = getelementptr inbounds nuw i8, ptr %1, i64 16
  %4 = load double, ptr %3, align 8, !tbaa !129
  %5 = fcmp olt double %0, %4
  br i1 %5, label %6, label %18

6:                                                ; preds = %2
  %7 = fsub double %0, %4
  %8 = tail call double @llvm.fabs.f64(double %7)
  %9 = load double, ptr %1, align 8, !tbaa !126
  %10 = getelementptr inbounds nuw i8, ptr %1, i64 8
  %11 = load double, ptr %10, align 8, !tbaa !128
  %12 = tail call double @llvm.fabs.f64(double %0)
  %13 = tail call double @llvm.fabs.f64(double %4)
  %14 = fcmp olt double %12, %13
  %.sroa.speculated.i.i = select i1 %14, double %13, double %12
  %15 = fadd double %.sroa.speculated.i.i, %11
  %16 = fmul double %9, %15
  %17 = fcmp uge double %8, %16
  br label %18

18:                                               ; preds = %6, %2
  %19 = phi i1 [ false, %2 ], [ %17, %6 ]
  ret i1 %19
}